; Function Attrs: mustprogress nofree norecurse nosync nounwind willreturn memory(readwrite, inaccessiblemem: none) uwtable
define hidden void @_ZN20bit_blaster_rewriter13start_rewriteEv(ptr nocapture noundef nonnull readonly align 8 dereferenceable(8) %this) local_unnamed_addr #8 align 2 {
entry:
  %0 = load ptr, ptr %this, align 8
  %m_nodes.i.i.i = getelementptr inbounds i8, ptr %0, i64 776
  %1 = load ptr, ptr %m_nodes.i.i.i, align 8
  %cmp.i.i.i.i = icmp eq ptr %1, null
  br i1 %cmp.i.i.i.i, label %_ZN20bit_blaster_rewriter3imp13start_rewriteEv.exit, label %if.end.i.i.i.i

if.end.i.i.i.i:                                   ; preds = %entry
  %arrayidx.i.i.i.i = getelementptr inbounds i8, ptr %1, i64 -4
  %2 = load i32, ptr %arrayidx.i.i.i.i, align 4
  br label %_ZN20bit_blaster_rewriter3imp13start_rewriteEv.exit

_ZN20bit_blaster_rewriter3imp13start_rewriteEv.exit: ; preds = %entry, %if.end.i.i.i.i
  %retval.0.i.i.i.i = phi i32 [ %2, %if.end.i.i.i.i ], [ 0, %entry ]
  %m_keypos.i.i = getelementptr inbounds i8, ptr %0, i64 852
  store i32 %retval.0.i.i.i.i, ptr %m_keypos.i.i, align 4
  ret void
}